; Function Attrs: mustprogress nounwind uwtable
define dso_local void @_ZN4llvm18ARMAttributeParser10nodefaultsENS_13ARMBuildAttrs8AttrTypeE(ptr dead_on_unwind noalias writable writeonly sret(%"class.llvm::Error") align 8 captures(none) initializes((0, 8)) %0, ptr noundef nonnull align 8 dereferenceable(200) %1, i32 noundef %2) #0 align 2 {
_ZN4llvm12ErrorSuccessD2Ev.exit:
  %3 = getelementptr inbounds nuw i8, ptr %1, i64 160
  %4 = getelementptr inbounds nuw i8, ptr %1, i64 184
  %5 = getelementptr inbounds nuw i8, ptr %1, i64 192
  %6 = tail call noundef i64 @_ZNK4llvm13DataExtractor10getULEB128EPmPNS_5ErrorE(ptr noundef nonnull align 8 dereferenceable(18) %3, ptr noundef nonnull align 8 dereferenceable(16) %4, ptr noundef nonnull %5) #14
  %7 = trunc i64 %6 to i32
  tail call void @_ZN4llvm18ELFAttributeParser14printAttributeEjjNS_9StringRefE(ptr noundef nonnull align 8 dereferenceable(200) %1, i32 noundef %2, i32 noundef %7, ptr nonnull @.str.133, i64 26) #14
  store ptr null, ptr %0, align 8
  ret void
}